; Function Attrs: nounwind uwtable
define noalias noundef ptr @Acb_NamesToIds(ptr noundef readonly captures(none) %0, ptr noundef readonly captures(none) %1, ptr noundef readonly captures(none) %2) local_unnamed_addr #0 {
  %4 = getelementptr i8, ptr %2, i64 4
  %.val17 = load i32, ptr %4, align 4, !tbaa !54
  %5 = tail call noalias dereferenceable_or_null(16) ptr @malloc(i64 noundef 16) #26
  %6 = add i32 %.val17, -1
  %or.cond.i = icmp ult i32 %6, 15
  %spec.store.select.i = select i1 %or.cond.i, i32 16, i32 %.val17
  %7 = getelementptr inbounds nuw i8, ptr %5, i64 4
  store i32 0, ptr %7, align 4, !tbaa !27
  store i32 %spec.store.select.i, ptr %5, align 8, !tbaa !28
  %.not.i = icmp eq i32 %spec.store.select.i, 0
  br i1 %.not.i, label %Vec_IntAlloc.exit, label %8

8:                                                ; preds = %3
  %9 = sext i32 %spec.store.select.i to i64
  %10 = shl nsw i64 %9, 2
  %11 = tail call noalias ptr @malloc(i64 noundef %10) #26
  br label %Vec_IntAlloc.exit

Vec_IntAlloc.exit:                                ; preds = %3, %8
  %12 = phi ptr [ %11, %8 ], [ null, %3 ]
  %13 = getelementptr inbounds nuw i8, ptr %5, i64 8
  store ptr %12, ptr %13, align 8, !tbaa !21
  %14 = icmp sgt i32 %.val17, 0
  br i1 %14, label %.lr.ph, label %.critedge

.lr.ph:                                           ; preds = %Vec_IntAlloc.exit
  %15 = getelementptr i8, ptr %2, i64 8
  %16 = getelementptr i8, ptr %1, i64 8
  br label %17

17:                                               ; preds = %.lr.ph, %Vec_IntPush.exit
  %18 = phi ptr [ %12, %.lr.ph ], [ %.pre.i25, %Vec_IntPush.exit ]
  %indvars.iv = phi i64 [ 0, %.lr.ph ], [ %indvars.iv.next, %Vec_IntPush.exit ]
  %.val19 = load ptr, ptr %15, align 8, !tbaa !56
  %19 = getelementptr inbounds nuw ptr, ptr %.val19, i64 %indvars.iv
  %20 = load ptr, ptr %19, align 8, !tbaa !57
  %.val20 = load ptr, ptr %0, align 8, !tbaa !58
  %21 = getelementptr i8, ptr %.val20, i64 16
  %.val20.val = load ptr, ptr %21, align 8, !tbaa !59
  %22 = tail call i32 @Abc_NamStrFind(ptr noundef %.val20.val, ptr noundef %20) #27
  %23 = icmp slt i32 %22, 1
  br i1 %23, label %24, label %28

24:                                               ; preds = %17
  %25 = load ptr, ptr %0, align 8, !tbaa !58
  %26 = load ptr, ptr %25, align 8, !tbaa !63
  %27 = tail call i32 (ptr, ...) @printf(ptr noundef nonnull dereferenceable(1) @.str, ptr noundef %20, ptr noundef %26)
  br label %32

28:                                               ; preds = %17
  %.val = load ptr, ptr %16, align 8, !tbaa !21
  %29 = zext nneg i32 %22 to i64
  %30 = getelementptr inbounds nuw i32, ptr %.val, i64 %29
  %31 = load i32, ptr %30, align 4, !tbaa !22
  br label %32

32:                                               ; preds = %28, %24
  %.0 = phi i32 [ 0, %24 ], [ %31, %28 ]
  %33 = load i32, ptr %7, align 4, !tbaa !27
  %34 = load i32, ptr %5, align 8, !tbaa !28
  %35 = icmp eq i32 %33, %34
  br i1 %35, label %36, label %Vec_IntPush.exit

36:                                               ; preds = %32
  %37 = icmp slt i32 %33, 16
  br i1 %37, label %38, label %43

38:                                               ; preds = %36
  %.not9.i.i = icmp eq ptr %18, null
  br i1 %.not9.i.i, label %41, label %39

39:                                               ; preds = %38
  %40 = tail call dereferenceable_or_null(64) ptr @realloc(ptr noundef nonnull %18, i64 noundef 64) #25
  br label %Vec_IntPush.exit.sink.split

41:                                               ; preds = %38
  %42 = tail call noalias dereferenceable_or_null(64) ptr @malloc(i64 noundef 64) #26
  br label %Vec_IntPush.exit.sink.split

43:                                               ; preds = %36
  %44 = shl nuw nsw i32 %33, 1
  %.not9.i9.i = icmp eq ptr %18, null
  %45 = zext nneg i32 %44 to i64
  %46 = shl nuw nsw i64 %45, 2
  br i1 %.not9.i9.i, label %49, label %47

47:                                               ; preds = %43
  %48 = tail call ptr @realloc(ptr noundef nonnull %18, i64 noundef %46) #25
  br label %Vec_IntPush.exit.sink.split

49:                                               ; preds = %43
  %50 = tail call noalias ptr @malloc(i64 noundef %46) #26
  br label %Vec_IntPush.exit.sink.split

Vec_IntPush.exit.sink.split:                      ; preds = %47, %49, %39, %41
  %.sink26 = phi ptr [ %40, %39 ], [ %42, %41 ], [ %48, %47 ], [ %50, %49 ]
  %.sink = phi i32 [ 16, %39 ], [ 16, %41 ], [ %44, %47 ], [ %44, %49 ]
  store ptr %.sink26, ptr %13, align 8, !tbaa !21
  store i32 %.sink, ptr %5, align 8, !tbaa !28
  br label %Vec_IntPush.exit

Vec_IntPush.exit:                                 ; preds = %Vec_IntPush.exit.sink.split, %32
  %.pre.i25 = phi ptr [ %18, %32 ], [ %.sink26, %Vec_IntPush.exit.sink.split ]
  %51 = add nsw i32 %33, 1
  store i32 %51, ptr %7, align 4, !tbaa !27
  %52 = sext i32 %33 to i64
  %53 = getelementptr inbounds i32, ptr %.pre.i25, i64 %52
  store i32 %.0, ptr %53, align 4, !tbaa !22
  %indvars.iv.next = add nuw nsw i64 %indvars.iv, 1
  %.val18 = load i32, ptr %4, align 4, !tbaa !54
  %54 = sext i32 %.val18 to i64
  %55 = icmp slt i64 %indvars.iv.next, %54
  br i1 %55, label %17, label %.critedge, !llvm.loop !64

.critedge:                                        ; preds = %Vec_IntPush.exit, %Vec_IntAlloc.exit
  ret ptr %5
}